target datalayout = "e-m:e-p270:32:32-p271:32:32-p272:64:64-i64:64-i128:128-f80:128-n8:16:32:64-S128"
target triple = "x86_64-pc-linux-gnu"

%struct.LZ4HC_CCtx_internal = type { [32768 x i32], [65536 x i16], ptr, ptr, ptr, i32, i32, i32, i16, i8, i8, ptr }

; Function Attrs: nounwind uwtable
define internal void @LZ4HC_clearTables(ptr noundef %0) #0 {
  %2 = alloca ptr, align 8
  store ptr %0, ptr %2, align 8, !tbaa !11
  %3 = load ptr, ptr %2, align 8, !tbaa !11
  %4 = getelementptr inbounds nuw %struct.LZ4HC_CCtx_internal, ptr %3, i32 0, i32 0
  %5 = getelementptr inbounds [32768 x i32], ptr %4, i64 0, i64 0
  call void @llvm.memset.p0.i64(ptr align 8 %5, i8 0, i64 131072, i1 false)
  %6 = load ptr, ptr %2, align 8, !tbaa !11
  %7 = getelementptr inbounds nuw %struct.LZ4HC_CCtx_internal, ptr %6, i32 0, i32 1
  %8 = getelementptr inbounds [65536 x i16], ptr %7, i64 0, i64 0
  call void @llvm.memset.p0.i64(ptr align 8 %8, i8 -1, i64 131072, i1 false)
  ret void
}

; Function Attrs: nounwind uwtable
define internal void @LZ4HC_init_internal(ptr noundef %0, ptr noundef %1) #0 {
  %3 = alloca ptr, align 8
  %4 = alloca ptr, align 8
  %5 = alloca i64, align 8
  %6 = alloca i64, align 8
  store ptr %0, ptr %3, align 8, !tbaa !11
  store ptr %1, ptr %4, align 8, !tbaa !4
  call void @llvm.lifetime.start.p0(i64 8, ptr %5) #11
  %7 = load ptr, ptr %3, align 8, !tbaa !11
  %8 = getelementptr inbounds nuw %struct.LZ4HC_CCtx_internal, ptr %7, i32 0, i32 2
  %9 = load ptr, ptr %8, align 8, !tbaa !13
  %10 = load ptr, ptr %3, align 8, !tbaa !11
  %11 = getelementptr inbounds nuw %struct.LZ4HC_CCtx_internal, ptr %10, i32 0, i32 3
  %12 = load ptr, ptr %11, align 8, !tbaa !16
  %13 = ptrtoint ptr %9 to i64
  %14 = ptrtoint ptr %12 to i64
  %15 = sub i64 %13, %14
  store i64 %15, ptr %5, align 8, !tbaa !18
  call void @llvm.lifetime.start.p0(i64 8, ptr %6) #11
  %16 = load i64, ptr %5, align 8, !tbaa !18
  %17 = load ptr, ptr %3, align 8, !tbaa !11
  %18 = getelementptr inbounds nuw %struct.LZ4HC_CCtx_internal, ptr %17, i32 0, i32 5
  %19 = load i32, ptr %18, align 8, !tbaa !17
  %20 = zext i32 %19 to i64
  %21 = add i64 %16, %20
  store i64 %21, ptr %6, align 8, !tbaa !18
  %22 = load i64, ptr %6, align 8, !tbaa !18
  %23 = icmp ugt i64 %22, 1073741824
  br i1 %23, label %24, label %26

24:                                               ; preds = %2
  %25 = load ptr, ptr %3, align 8, !tbaa !11
  call void @LZ4HC_clearTables(ptr noundef %25)
  store i64 0, ptr %6, align 8, !tbaa !18
  br label %26

26:                                               ; preds = %24, %2
  %27 = load i64, ptr %6, align 8, !tbaa !18
  %28 = add i64 %27, 65536
  store i64 %28, ptr %6, align 8, !tbaa !18
  %29 = load i64, ptr %6, align 8, !tbaa !18
  %30 = trunc i64 %29 to i32
  %31 = load ptr, ptr %3, align 8, !tbaa !11
  %32 = getelementptr inbounds nuw %struct.LZ4HC_CCtx_internal, ptr %31, i32 0, i32 7
  store i32 %30, ptr %32, align 8, !tbaa !38
  %33 = load ptr, ptr %4, align 8, !tbaa !4
  %34 = load ptr, ptr %3, align 8, !tbaa !11
  %35 = getelementptr inbounds nuw %struct.LZ4HC_CCtx_internal, ptr %34, i32 0, i32 3
  store ptr %33, ptr %35, align 8, !tbaa !16
  %36 = load ptr, ptr %4, align 8, !tbaa !4
  %37 = load ptr, ptr %3, align 8, !tbaa !11
  %38 = getelementptr inbounds nuw %struct.LZ4HC_CCtx_internal, ptr %37, i32 0, i32 2
  store ptr %36, ptr %38, align 8, !tbaa !13
  %39 = load ptr, ptr %4, align 8, !tbaa !4
  %40 = load ptr, ptr %3, align 8, !tbaa !11
  %41 = getelementptr inbounds nuw %struct.LZ4HC_CCtx_internal, ptr %40, i32 0, i32 4
  store ptr %39, ptr %41, align 8, !tbaa !39
  %42 = load i64, ptr %6, align 8, !tbaa !18
  %43 = trunc i64 %42 to i32
  %44 = load ptr, ptr %3, align 8, !tbaa !11
  %45 = getelementptr inbounds nuw %struct.LZ4HC_CCtx_internal, ptr %44, i32 0, i32 5
  store i32 %43, ptr %45, align 8, !tbaa !17
  %46 = load i64, ptr %6, align 8, !tbaa !18
  %47 = trunc i64 %46 to i32
  %48 = load ptr, ptr %3, align 8, !tbaa !11
  %49 = getelementptr inbounds nuw %struct.LZ4HC_CCtx_internal, ptr %48, i32 0, i32 6
  store i32 %47, ptr %49, align 4, !tbaa !40
  call void @llvm.lifetime.end.p0(i64 8, ptr %6) #11
  call void @llvm.lifetime.end.p0(i64 8, ptr %5) #11
  ret void
}

; Function Attrs: nounwind uwtable
define dso_local void @LZ4_resetStreamHC_fast(ptr noundef %0, i32 noundef %1) #0 {
  %3 = alloca ptr, align 8
  %4 = alloca i32, align 4
  %5 = alloca ptr, align 8
  store ptr %0, ptr %3, align 8, !tbaa !34
  store i32 %1, ptr %4, align 4, !tbaa !9
  call void @llvm.lifetime.start.p0(i64 8, ptr %5) #11
  %6 = load ptr, ptr %3, align 8, !tbaa !34
  store ptr %6, ptr %5, align 8, !tbaa !11
  %7 = load ptr, ptr %5, align 8, !tbaa !11
  %8 = getelementptr inbounds nuw %struct.LZ4HC_CCtx_internal, ptr %7, i32 0, i32 10
  %9 = load i8, ptr %8, align 1, !tbaa !36
  %10 = icmp ne i8 %9, 0
  br i1 %10, label %11, label %14

11:                                               ; preds = %2
  %12 = load ptr, ptr %3, align 8, !tbaa !34
  %13 = call ptr @LZ4_initStreamHC(ptr noundef %12, i64 noundef 262200)
  br label %35

14:                                               ; preds = %2
  %15 = load ptr, ptr %5, align 8, !tbaa !11
  %16 = getelementptr inbounds nuw %struct.LZ4HC_CCtx_internal, ptr %15, i32 0, i32 2
  %17 = load ptr, ptr %16, align 8, !tbaa !13
  %18 = load ptr, ptr %5, align 8, !tbaa !11
  %19 = getelementptr inbounds nuw %struct.LZ4HC_CCtx_internal, ptr %18, i32 0, i32 3
  %20 = load ptr, ptr %19, align 8, !tbaa !16
  %21 = ptrtoint ptr %17 to i64
  %22 = ptrtoint ptr %20 to i64
  %23 = sub i64 %21, %22
  %24 = trunc i64 %23 to i32
  %25 = load ptr, ptr %5, align 8, !tbaa !11
  %26 = getelementptr inbounds nuw %struct.LZ4HC_CCtx_internal, ptr %25, i32 0, i32 5
  %27 = load i32, ptr %26, align 8, !tbaa !17
  %28 = add i32 %27, %24
  store i32 %28, ptr %26, align 8, !tbaa !17
  %29 = load ptr, ptr %5, align 8, !tbaa !11
  %30 = getelementptr inbounds nuw %struct.LZ4HC_CCtx_internal, ptr %29, i32 0, i32 3
  store ptr null, ptr %30, align 8, !tbaa !16
  %31 = load ptr, ptr %5, align 8, !tbaa !11
  %32 = getelementptr inbounds nuw %struct.LZ4HC_CCtx_internal, ptr %31, i32 0, i32 2
  store ptr null, ptr %32, align 8, !tbaa !13
  %33 = load ptr, ptr %5, align 8, !tbaa !11
  %34 = getelementptr inbounds nuw %struct.LZ4HC_CCtx_internal, ptr %33, i32 0, i32 11
  store ptr null, ptr %34, align 8, !tbaa !37
  br label %35

35:                                               ; preds = %14, %11
  %36 = load ptr, ptr %3, align 8, !tbaa !34
  %37 = load i32, ptr %4, align 4, !tbaa !9
  call void @LZ4_setCompressionLevel(ptr noundef %36, i32 noundef %37)
  call void @llvm.lifetime.end.p0(i64 8, ptr %5) #11
  ret void
}

; Function Attrs: nounwind uwtable
define dso_local void @LZ4_setCompressionLevel(ptr noundef %0, i32 noundef %1) #0 {
  %3 = alloca ptr, align 8
  %4 = alloca i32, align 4
  store ptr %0, ptr %3, align 8, !tbaa !34
  store i32 %1, ptr %4, align 4, !tbaa !9
  %5 = load i32, ptr %4, align 4, !tbaa !9
  %6 = icmp slt i32 %5, 1
  br i1 %6, label %7, label %8

7:                                                ; preds = %2
  store i32 9, ptr %4, align 4, !tbaa !9
  br label %8

8:                                                ; preds = %7, %2
  %9 = load i32, ptr %4, align 4, !tbaa !9
  %10 = icmp sgt i32 %9, 12
  br i1 %10, label %11, label %12

11:                                               ; preds = %8
  store i32 12, ptr %4, align 4, !tbaa !9
  br label %12

12:                                               ; preds = %11, %8
  %13 = load i32, ptr %4, align 4, !tbaa !9
  %14 = trunc i32 %13 to i16
  %15 = load ptr, ptr %3, align 8, !tbaa !34
  %16 = getelementptr inbounds nuw %struct.LZ4HC_CCtx_internal, ptr %15, i32 0, i32 8
  store i16 %14, ptr %16, align 4, !tbaa !31
  ret void
}

; Function Attrs: nounwind uwtable
define internal i32 @LZ4_isAligned(ptr noundef %0, i64 noundef %1) #0 {
  %3 = alloca ptr, align 8
  %4 = alloca i64, align 8
  store ptr %0, ptr %3, align 8, !tbaa !27
  store i64 %1, ptr %4, align 8, !tbaa !18
  %5 = load ptr, ptr %3, align 8, !tbaa !27
  %6 = ptrtoint ptr %5 to i64
  %7 = load i64, ptr %4, align 8, !tbaa !18
  %8 = sub i64 %7, 1
  %9 = and i64 %6, %8
  %10 = icmp eq i64 %9, 0
  %11 = zext i1 %10 to i32
  ret i32 %11
}

; Function Attrs: nounwind uwtable
define internal i64 @LZ4_streamHC_t_alignment() #0 {
  ret i64 8
}

; Function Attrs: nounwind uwtable
define dso_local i32 @LZ4_compress_HC_extStateHC_fastReset(ptr noundef %0, ptr noundef %1, ptr noundef %2, i32 noundef %3, i32 noundef %4, i32 noundef %5) #0 {
  %7 = alloca i32, align 4
  %8 = alloca ptr, align 8
  %9 = alloca ptr, align 8
  %10 = alloca ptr, align 8
  %11 = alloca i32, align 4
  %12 = alloca i32, align 4
  %13 = alloca i32, align 4
  %14 = alloca ptr, align 8
  %15 = alloca i32, align 4
  store ptr %0, ptr %8, align 8, !tbaa !27
  store ptr %1, ptr %9, align 8, !tbaa !4
  store ptr %2, ptr %10, align 8, !tbaa !4
  store i32 %3, ptr %11, align 4, !tbaa !9
  store i32 %4, ptr %12, align 4, !tbaa !9
  store i32 %5, ptr %13, align 4, !tbaa !9
  call void @llvm.lifetime.start.p0(i64 8, ptr %14) #11
  %16 = load ptr, ptr %8, align 8, !tbaa !27
  store ptr %16, ptr %14, align 8, !tbaa !11
  %17 = load ptr, ptr %8, align 8, !tbaa !27
  %18 = call i64 @LZ4_streamHC_t_alignment()
  %19 = call i32 @LZ4_isAligned(ptr noundef %17, i64 noundef %18)
  %20 = icmp ne i32 %19, 0
  br i1 %20, label %22, label %21

21:                                               ; preds = %6
  store i32 0, ptr %7, align 4
  store i32 1, ptr %15, align 4
  br label %45

22:                                               ; preds = %6
  %23 = load ptr, ptr %8, align 8, !tbaa !27
  %24 = load i32, ptr %13, align 4, !tbaa !9
  call void @LZ4_resetStreamHC_fast(ptr noundef %23, i32 noundef %24)
  %25 = load ptr, ptr %14, align 8, !tbaa !11
  %26 = load ptr, ptr %9, align 8, !tbaa !4
  call void @LZ4HC_init_internal(ptr noundef %25, ptr noundef %26)
  %27 = load i32, ptr %12, align 4, !tbaa !9
  %28 = load i32, ptr %11, align 4, !tbaa !9
  %29 = call i32 @LZ4_compressBound(i32 noundef %28)
  %30 = icmp slt i32 %27, %29
  br i1 %30, label %31, label %38

31:                                               ; preds = %22
  %32 = load ptr, ptr %14, align 8, !tbaa !11
  %33 = load ptr, ptr %9, align 8, !tbaa !4
  %34 = load ptr, ptr %10, align 8, !tbaa !4
  %35 = load i32, ptr %12, align 4, !tbaa !9
  %36 = load i32, ptr %13, align 4, !tbaa !9
  %37 = call i32 @LZ4HC_compress_generic(ptr noundef %32, ptr noundef %33, ptr noundef %34, ptr noundef %11, i32 noundef %35, i32 noundef %36, i32 noundef 1)
  store i32 %37, ptr %7, align 4
  store i32 1, ptr %15, align 4
  br label %45

38:                                               ; preds = %22
  %39 = load ptr, ptr %14, align 8, !tbaa !11
  %40 = load ptr, ptr %9, align 8, !tbaa !4
  %41 = load ptr, ptr %10, align 8, !tbaa !4
  %42 = load i32, ptr %12, align 4, !tbaa !9
  %43 = load i32, ptr %13, align 4, !tbaa !9
  %44 = call i32 @LZ4HC_compress_generic(ptr noundef %39, ptr noundef %40, ptr noundef %41, ptr noundef %11, i32 noundef %42, i32 noundef %43, i32 noundef 0)
  store i32 %44, ptr %7, align 4
  store i32 1, ptr %15, align 4
  br label %45

45:                                               ; preds = %38, %31, %21
  call void @llvm.lifetime.end.p0(i64 8, ptr %14) #11
  %46 = load i32, ptr %7, align 4
  ret i32 %46
}

; Function Attrs: nounwind uwtable
define dso_local ptr @LZ4_initStreamHC(ptr noundef %0, i64 noundef %1) #0 {
  %3 = alloca ptr, align 8
  %4 = alloca ptr, align 8
  %5 = alloca i64, align 8
  %6 = alloca ptr, align 8
  %7 = alloca i32, align 4
  %8 = alloca ptr, align 8
  store ptr %0, ptr %4, align 8, !tbaa !27
  store i64 %1, ptr %5, align 8, !tbaa !18
  call void @llvm.lifetime.start.p0(i64 8, ptr %6) #11
  %9 = load ptr, ptr %4, align 8, !tbaa !27
  store ptr %9, ptr %6, align 8, !tbaa !34
  %10 = load ptr, ptr %4, align 8, !tbaa !27
  %11 = icmp eq ptr %10, null
  br i1 %11, label %12, label %13

12:                                               ; preds = %2
  store ptr null, ptr %3, align 8
  store i32 1, ptr %7, align 4
  br label %28

13:                                               ; preds = %2
  %14 = load i64, ptr %5, align 8, !tbaa !18
  %15 = icmp ult i64 %14, 262200
  br i1 %15, label %16, label %17

16:                                               ; preds = %13
  store ptr null, ptr %3, align 8
  store i32 1, ptr %7, align 4
  br label %28

17:                                               ; preds = %13
  %18 = load ptr, ptr %4, align 8, !tbaa !27
  %19 = call i64 @LZ4_streamHC_t_alignment()
  %20 = call i32 @LZ4_isAligned(ptr noundef %18, i64 noundef %19)
  %21 = icmp ne i32 %20, 0
  br i1 %21, label %23, label %22

22:                                               ; preds = %17
  store ptr null, ptr %3, align 8
  store i32 1, ptr %7, align 4
  br label %28

23:                                               ; preds = %17
  call void @llvm.lifetime.start.p0(i64 8, ptr %8) #11
  %24 = load ptr, ptr %6, align 8, !tbaa !34
  store ptr %24, ptr %8, align 8, !tbaa !11
  %25 = load ptr, ptr %8, align 8, !tbaa !11
  call void @llvm.memset.p0.i64(ptr align 8 %25, i8 0, i64 262192, i1 false)
  call void @llvm.lifetime.end.p0(i64 8, ptr %8) #11
  %26 = load ptr, ptr %6, align 8, !tbaa !34
  call void @LZ4_setCompressionLevel(ptr noundef %26, i32 noundef 9)
  %27 = load ptr, ptr %6, align 8, !tbaa !34
  store ptr %27, ptr %3, align 8
  store i32 1, ptr %7, align 4
  br label %28

28:                                               ; preds = %23, %22, %16, %12
  call void @llvm.lifetime.end.p0(i64 8, ptr %6) #11
  %29 = load ptr, ptr %3, align 8
  ret ptr %29
}

; Function Attrs: nounwind uwtable
define dso_local i32 @LZ4_compress_HC_extStateHC(ptr noundef %0, ptr noundef %1, ptr noundef %2, i32 noundef %3, i32 noundef %4, i32 noundef %5) #0 {
  %7 = alloca i32, align 4
  %8 = alloca ptr, align 8
  %9 = alloca ptr, align 8
  %10 = alloca ptr, align 8
  %11 = alloca i32, align 4
  %12 = alloca i32, align 4
  %13 = alloca i32, align 4
  %14 = alloca ptr, align 8
  %15 = alloca i32, align 4
  store ptr %0, ptr %8, align 8, !tbaa !27
  store ptr %1, ptr %9, align 8, !tbaa !4
  store ptr %2, ptr %10, align 8, !tbaa !4
  store i32 %3, ptr %11, align 4, !tbaa !9
  store i32 %4, ptr %12, align 4, !tbaa !9
  store i32 %5, ptr %13, align 4, !tbaa !9
  call void @llvm.lifetime.start.p0(i64 8, ptr %14) #11
  %16 = load ptr, ptr %8, align 8, !tbaa !27
  %17 = call ptr @LZ4_initStreamHC(ptr noundef %16, i64 noundef 262200)
  store ptr %17, ptr %14, align 8, !tbaa !34
  %18 = load ptr, ptr %14, align 8, !tbaa !34
  %19 = icmp eq ptr %18, null
  br i1 %19, label %20, label %21

20:                                               ; preds = %6
  store i32 0, ptr %7, align 4
  store i32 1, ptr %15, align 4
  br label %29

21:                                               ; preds = %6
  %22 = load ptr, ptr %8, align 8, !tbaa !27
  %23 = load ptr, ptr %9, align 8, !tbaa !4
  %24 = load ptr, ptr %10, align 8, !tbaa !4
  %25 = load i32, ptr %11, align 4, !tbaa !9
  %26 = load i32, ptr %12, align 4, !tbaa !9
  %27 = load i32, ptr %13, align 4, !tbaa !9
  %28 = call i32 @LZ4_compress_HC_extStateHC_fastReset(ptr noundef %22, ptr noundef %23, ptr noundef %24, i32 noundef %25, i32 noundef %26, i32 noundef %27)
  store i32 %28, ptr %7, align 4
  store i32 1, ptr %15, align 4
  br label %29

29:                                               ; preds = %21, %20
  call void @llvm.lifetime.end.p0(i64 8, ptr %14) #11
  %30 = load i32, ptr %7, align 4
  ret i32 %30
}

; Function Attrs: nounwind uwtable
define dso_local i32 @LZ4_compressHC2_withStateHC(ptr noundef %0, ptr noundef %1, ptr noundef %2, i32 noundef %3, i32 noundef %4) #0 {
  %6 = alloca ptr, align 8
  %7 = alloca ptr, align 8
  %8 = alloca ptr, align 8
  %9 = alloca i32, align 4
  %10 = alloca i32, align 4
  store ptr %0, ptr %6, align 8, !tbaa !27
  store ptr %1, ptr %7, align 8, !tbaa !4
  store ptr %2, ptr %8, align 8, !tbaa !4
  store i32 %3, ptr %9, align 4, !tbaa !9
  store i32 %4, ptr %10, align 4, !tbaa !9
  %11 = load ptr, ptr %6, align 8, !tbaa !27
  %12 = load ptr, ptr %7, align 8, !tbaa !4
  %13 = load ptr, ptr %8, align 8, !tbaa !4
  %14 = load i32, ptr %9, align 4, !tbaa !9
  %15 = load i32, ptr %9, align 4, !tbaa !9
  %16 = call i32 @LZ4_compressBound(i32 noundef %15)
  %17 = load i32, ptr %10, align 4, !tbaa !9
  %18 = call i32 @LZ4_compress_HC_extStateHC(ptr noundef %11, ptr noundef %12, ptr noundef %13, i32 noundef %14, i32 noundef %16, i32 noundef %17)
  ret i32 %18
}